; Function Attrs: mustprogress uwtable
define void @_ZN3net11QuicSession20PostProcessAfterDataEv(ptr noundef nonnull align 8 captures(none) dereferenceable(2044) %0) unnamed_addr #0 align 2 personality ptr @__gxx_personality_v0 {
  %2 = getelementptr inbounds nuw i8, ptr %0, i64 64
  %3 = load ptr, ptr %2, align 8, !tbaa !237
  %4 = getelementptr inbounds nuw i8, ptr %0, i64 72
  %5 = load ptr, ptr %4, align 8, !tbaa !237
  %.not4.i.i = icmp eq ptr %3, %5
  br i1 %.not4.i.i, label %_ZNSt6vectorIPN3net18ReliableQuicStreamESaIS2_EE5clearEv.exit, label %.lr.ph.i.i

.lr.ph.i.i:                                       ; preds = %1, %13
  %.sroa.02.05.i.i = phi ptr [ %6, %13 ], [ %3, %1 ]
  %6 = getelementptr inbounds nuw i8, ptr %.sroa.02.05.i.i, i64 8
  %7 = load ptr, ptr %.sroa.02.05.i.i, align 8, !tbaa !228
  %8 = icmp eq ptr %7, null
  br i1 %8, label %13, label %9

9:                                                ; preds = %.lr.ph.i.i
  %10 = load ptr, ptr %7, align 8, !tbaa !3
  %11 = getelementptr inbounds nuw i8, ptr %10, i64 8
  %12 = load ptr, ptr %11, align 8
  tail call void %12(ptr noundef nonnull align 8 dereferenceable(377) %7) #25
  br label %13

13:                                               ; preds = %9, %.lr.ph.i.i
  %.not.i.i = icmp eq ptr %6, %5
  br i1 %.not.i.i, label %_ZN4base26STLDeleteContainerPointersIN9__gnu_cxx17__normal_iteratorIPPN3net18ReliableQuicStreamESt6vectorIS5_SaIS5_EEEEEEvT_SB_.exit.i, label %.lr.ph.i.i, !llvm.loop !238

_ZN4base26STLDeleteContainerPointersIN9__gnu_cxx17__normal_iteratorIPPN3net18ReliableQuicStreamESt6vectorIS5_SaIS5_EEEEEEvT_SB_.exit.i: ; preds = %13
  %.pre.i = load ptr, ptr %2, align 8, !tbaa !217
  %.pre5.i = load ptr, ptr %4, align 8, !tbaa !239
  %.not.i.i.i = icmp eq ptr %.pre5.i, %.pre.i
  br i1 %.not.i.i.i, label %_ZNSt6vectorIPN3net18ReliableQuicStreamESaIS2_EE5clearEv.exit, label %14

14:                                               ; preds = %_ZN4base26STLDeleteContainerPointersIN9__gnu_cxx17__normal_iteratorIPPN3net18ReliableQuicStreamESt6vectorIS5_SaIS5_EEEEEEvT_SB_.exit.i
  store ptr %.pre.i, ptr %4, align 8, !tbaa !239
  br label %_ZNSt6vectorIPN3net18ReliableQuicStreamESaIS2_EE5clearEv.exit

_ZNSt6vectorIPN3net18ReliableQuicStreamESaIS2_EE5clearEv.exit: ; preds = %14, %_ZN4base26STLDeleteContainerPointersIN9__gnu_cxx17__normal_iteratorIPPN3net18ReliableQuicStreamESt6vectorIS5_SaIS5_EEEEEEvT_SB_.exit.i, %1
  ret void
}